target datalayout = "e-m:e-p270:32:32-p271:32:32-p272:64:64-i64:64-i128:128-f80:128-n8:16:32:64-S128"
target triple = "x86_64-pc-linux-gnu"

@.str.24 = private unnamed_addr constant [28 x i8] c"../openssl/test/test_test.c\00", align 1
@stderr = external global ptr, align 8
@.str.47 = private unnamed_addr constant [19 x i8] c"# FATAL: %s != %d\0A\00", align 1
@.str.268 = private unnamed_addr constant [53 x i8] c"1234567890123456789012345678901234567890123456789012\00", align 1
@.str.269 = private unnamed_addr constant [53 x i8] c"abcdefghijklmnopqrstuvwxyzABCDEFGHIJKLMNOPQRSTUVWXYZ\00", align 1
@.str.270 = private unnamed_addr constant [40 x i8] c"TEST_mem_eq(p, strlen(p), q, strlen(q))\00", align 1
@.str.271 = private unnamed_addr constant [2 x i8] c"p\00", align 1
@.str.272 = private unnamed_addr constant [2 x i8] c"q\00", align 1

; Function Attrs: nounwind uwtable
define internal i32 @test_case(i32 noundef %0, ptr noundef %1, i32 noundef %2) #0 {
  %4 = alloca i32, align 4
  %5 = alloca i32, align 4
  %6 = alloca ptr, align 8
  %7 = alloca i32, align 4
  store i32 %0, ptr %5, align 4, !tbaa !4
  store ptr %1, ptr %6, align 8, !tbaa !9
  store i32 %2, ptr %7, align 4, !tbaa !4
  %8 = load i32, ptr %7, align 4, !tbaa !4
  %9 = load i32, ptr %5, align 4, !tbaa !4
  %10 = icmp ne i32 %8, %9
  br i1 %10, label %11, label %16

11:                                               ; preds = %3
  %12 = load ptr, ptr @stderr, align 8, !tbaa !16
  %13 = load ptr, ptr %6, align 8, !tbaa !9
  %14 = load i32, ptr %5, align 4, !tbaa !4
  %15 = call i32 (ptr, ptr, ...) @fprintf(ptr noundef %12, ptr noundef @.str.47, ptr noundef %13, i32 noundef %14) #7
  store i32 0, ptr %4, align 4
  br label %17

16:                                               ; preds = %3
  store i32 1, ptr %4, align 4
  br label %17

17:                                               ; preds = %16, %11
  %18 = load i32, ptr %4, align 4
  ret i32 %18
}

; Function Attrs: nounwind uwtable
define internal i32 @test_memory_overflow() #0 {
  %1 = alloca ptr, align 8
  %2 = alloca ptr, align 8
  call void @llvm.lifetime.start.p0(i64 8, ptr %1) #7
  store ptr @.str.268, ptr %1, align 8, !tbaa !9
  call void @llvm.lifetime.start.p0(i64 8, ptr %2) #7
  store ptr @.str.269, ptr %2, align 8, !tbaa !9
  %3 = load ptr, ptr %1, align 8, !tbaa !9
  %4 = load ptr, ptr %1, align 8, !tbaa !9
  %5 = call i64 @strlen(ptr noundef %4) #8
  %6 = load ptr, ptr %2, align 8, !tbaa !9
  %7 = load ptr, ptr %2, align 8, !tbaa !9
  %8 = call i64 @strlen(ptr noundef %7) #8
  %9 = call i32 @test_mem_eq(ptr noundef @.str.24, i32 noundef 309, ptr noundef @.str.271, ptr noundef @.str.272, ptr noundef %3, i64 noundef %5, ptr noundef %6, i64 noundef %8)
  %10 = call i32 @test_case(i32 noundef 0, ptr noundef @.str.270, i32 noundef %9)
  call void @llvm.lifetime.end.p0(i64 8, ptr %2) #7
  call void @llvm.lifetime.end.p0(i64 8, ptr %1) #7
  ret i32 %10
}