; Function Attrs: nounwind uwtable
define internal range(i32 0, 2) i32 @test_memory_overflow() #0 {
  %1 = tail call i32 @test_mem_eq(ptr noundef nonnull @.str.24, i32 noundef 309, ptr noundef nonnull @.str.271, ptr noundef nonnull @.str.272, ptr noundef nonnull @.str.268, i64 noundef 52, ptr noundef nonnull @.str.269, i64 noundef 52) #5
  %.not.i = icmp eq i32 %1, 0
  br i1 %.not.i, label %test_case.exit, label %2

2:                                                ; preds = %0
  %3 = load ptr, ptr @stderr, align 8, !tbaa !4
  %4 = tail call i32 (ptr, ptr, ...) @fprintf(ptr noundef %3, ptr noundef nonnull @.str.47, ptr noundef nonnull @.str.270, i32 noundef 0) #6
  br label %test_case.exit

test_case.exit:                                   ; preds = %0, %2
  %.0.i = phi i32 [ 0, %2 ], [ 1, %0 ]
  ret i32 %.0.i
}